; Function Attrs: mustprogress nounwind uwtable
define hidden noundef ptr @_ZNK10JavaThread8name_rawEv(ptr noundef nonnull align 8 dereferenceable(1800) %0) local_unnamed_addr #0 align 2 {
  %2 = getelementptr inbounds i8, ptr %0, i64 896
  %3 = load ptr, ptr %2, align 8
  %4 = icmp eq ptr %3, null
  br i1 %4, label %_ZNK10JavaThread22get_thread_name_stringEPci.exit, label %_ZNK10JavaThread9threadObjEv.exit.i

_ZNK10JavaThread9threadObjEv.exit.i:              ; preds = %1
  %5 = load ptr, ptr @_ZN14AccessInternal15RuntimeDispatchILm548932EP7oopDescLNS_11BarrierTypeE2EE10_load_funcE, align 8
  %6 = tail call noundef ptr %5(ptr noundef nonnull %3) #21
  %.not.i = icmp eq ptr %6, null
  br i1 %.not.i, label %_ZNK10JavaThread22get_thread_name_stringEPci.exit, label %7

7:                                                ; preds = %_ZNK10JavaThread9threadObjEv.exit.i
  %8 = tail call noundef ptr @_ZN16java_lang_Thread4nameEP7oopDesc(ptr noundef nonnull %6) #21
  %.not12.i = icmp eq ptr %8, null
  br i1 %.not12.i, label %11, label %9

9:                                                ; preds = %7
  %10 = tail call noundef ptr @_ZN16java_lang_String14as_utf8_stringEP7oopDesc(ptr noundef nonnull %8) #21
  br label %_ZNK10JavaThread22get_thread_name_stringEPci.exit

11:                                               ; preds = %7
  %12 = getelementptr inbounds i8, ptr %0, i64 1144
  %13 = load volatile i32, ptr %12, align 8
  %14 = icmp eq i32 %13, 2
  %.str.38..str.39.i = select i1 %14, ptr @.str.38, ptr @.str.39
  br label %_ZNK10JavaThread22get_thread_name_stringEPci.exit

_ZNK10JavaThread22get_thread_name_stringEPci.exit: ; preds = %1, %_ZNK10JavaThread9threadObjEv.exit.i, %9, %11
  %.0.i = phi ptr [ %10, %9 ], [ %.str.38..str.39.i, %11 ], [ @.str.80, %_ZNK10JavaThread9threadObjEv.exit.i ], [ @.str.80, %1 ]
  ret ptr %.0.i
}